target datalayout = "e-m:e-p270:32:32-p271:32:32-p272:64:64-i64:64-i128:128-f80:128-n8:16:32:64-S128"
target triple = "x86_64-pc-linux-gnu"

%struct.ma_allocation_callbacks = type { ptr, ptr, ptr, ptr }
%struct.ma_log_callback = type { ptr, ptr }
%struct.ma_log = type { [4 x %struct.ma_log_callback], i32, %struct.ma_allocation_callbacks, %union.pthread_mutex_t }
%union.pthread_mutex_t = type { %struct.__pthread_mutex_s }
%struct.__pthread_mutex_s = type { i32, i32, i32, i32, i32, i16, i16, %struct.__pthread_internal_list }
%struct.__pthread_internal_list = type { ptr, ptr }
%struct.ma_context = type { %struct.ma_backend_callbacks, i32, ptr, %struct.ma_log, i32, i64, ptr, %struct.ma_allocation_callbacks, %union.pthread_mutex_t, %union.pthread_mutex_t, i32, i32, i32, ptr, %union.anon.36, %union.anon.41 }
%struct.ma_backend_callbacks = type { ptr, ptr, ptr, ptr, ptr, ptr, ptr, ptr, ptr, ptr, ptr, ptr, ptr }
%union.anon.36 = type { %struct.anon.37 }
%struct.anon.37 = type { ptr, ptr, ptr, ptr, ptr, ptr, ptr, ptr, ptr, ptr, ptr, ptr, ptr, ptr, ptr, ptr, ptr, ptr, ptr, ptr, ptr, ptr, ptr, ptr, ptr, ptr, ptr, ptr, ptr, ptr, ptr, ptr, ptr, ptr, ptr, ptr, ptr, ptr, ptr, ptr, ptr, ptr, ptr, ptr, ptr, ptr, ptr, ptr, ptr, ptr, ptr, ptr, ptr, ptr, ptr, ptr, ptr, ptr, ptr, ptr, ptr, ptr, ptr, ptr, ptr, ptr, ptr, %union.pthread_mutex_t, i32 }
%union.anon.41 = type { %struct.anon.42 }
%struct.anon.42 = type { i32 }

; Function Attrs: nounwind uwtable
define internal void @ma_mutex_uninit__posix(ptr noundef %0) #0 {
  %2 = alloca ptr, align 8
  store ptr %0, ptr %2, align 8, !tbaa !25
  %3 = load ptr, ptr %2, align 8, !tbaa !25
  %4 = call i32 @pthread_mutex_destroy(ptr noundef %3) #16
  ret void
}

; Function Attrs: nounwind uwtable
define void @ma_mutex_uninit(ptr noundef %0) #0 {
  %2 = alloca ptr, align 8
  store ptr %0, ptr %2, align 8, !tbaa !25
  %3 = load ptr, ptr %2, align 8, !tbaa !25
  %4 = icmp eq ptr %3, null
  br i1 %4, label %5, label %6

5:                                                ; preds = %1
  br label %8

6:                                                ; preds = %1
  %7 = load ptr, ptr %2, align 8, !tbaa !25
  call void @ma_mutex_uninit__posix(ptr noundef %7)
  br label %8

8:                                                ; preds = %6, %5
  ret void
}

; Function Attrs: nounwind uwtable
define void @ma_dlclose(ptr noundef %0, ptr noundef %1) #0 {
  %3 = alloca ptr, align 8
  %4 = alloca ptr, align 8
  store ptr %0, ptr %3, align 8, !tbaa !25
  store ptr %1, ptr %4, align 8, !tbaa !25
  %5 = load ptr, ptr %4, align 8, !tbaa !25
  %6 = call i32 @dlclose(ptr noundef %5) #16
  ret void
}

; Function Attrs: nounwind uwtable
define ptr @ma_context_get_log(ptr noundef %0) #0 {
  %2 = alloca ptr, align 8
  %3 = alloca ptr, align 8
  store ptr %0, ptr %3, align 8, !tbaa !209
  %4 = load ptr, ptr %3, align 8, !tbaa !209
  %5 = icmp eq ptr %4, null
  br i1 %5, label %6, label %7

6:                                                ; preds = %1
  store ptr null, ptr %2, align 8
  br label %11

7:                                                ; preds = %1
  %8 = load ptr, ptr %3, align 8, !tbaa !209
  %9 = getelementptr inbounds nuw %struct.ma_context, ptr %8, i32 0, i32 2
  %10 = load ptr, ptr %9, align 8, !tbaa !215
  store ptr %10, ptr %2, align 8
  br label %11

11:                                               ; preds = %7, %6
  %12 = load ptr, ptr %2, align 8
  ret ptr %12
}

; Function Attrs: nounwind uwtable
define internal i32 @ma_context_uninit__alsa(ptr noundef %0) #0 {
  %2 = alloca ptr, align 8
  store ptr %0, ptr %2, align 8, !tbaa !209
  %3 = load ptr, ptr %2, align 8, !tbaa !209
  %4 = getelementptr inbounds nuw %struct.ma_context, ptr %3, i32 0, i32 14
  %5 = getelementptr inbounds nuw %struct.anon.37, ptr %4, i32 0, i32 66
  %6 = load ptr, ptr %5, align 8, !tbaa !14
  %7 = call i32 %6()
  %8 = load ptr, ptr %2, align 8, !tbaa !209
  %9 = call ptr @ma_context_get_log(ptr noundef %8)
  %10 = load ptr, ptr %2, align 8, !tbaa !209
  %11 = getelementptr inbounds nuw %struct.ma_context, ptr %10, i32 0, i32 14
  %12 = getelementptr inbounds nuw %struct.anon.37, ptr %11, i32 0, i32 0
  %13 = load ptr, ptr %12, align 8, !tbaa !14
  call void @ma_dlclose(ptr noundef %9, ptr noundef %13)
  %14 = load ptr, ptr %2, align 8, !tbaa !209
  %15 = getelementptr inbounds nuw %struct.ma_context, ptr %14, i32 0, i32 14
  %16 = getelementptr inbounds nuw %struct.anon.37, ptr %15, i32 0, i32 67
  call void @ma_mutex_uninit(ptr noundef %16)
  ret i32 0
}