; Function Attrs: nounwind uwtable
define internal noundef i32 @ma_context_uninit__alsa(ptr noundef %0) #7 {
ma_context_get_log.exit:
  %1 = getelementptr inbounds nuw i8, ptr %0, i64 424
  %2 = getelementptr inbounds nuw i8, ptr %0, i64 952
  %3 = load ptr, ptr %2, align 8, !tbaa !7
  %4 = tail call i32 %3() #69
  %5 = load ptr, ptr %1, align 8, !tbaa !7
  %6 = tail call i32 @dlclose(ptr noundef %5) #69
  %7 = getelementptr inbounds nuw i8, ptr %0, i64 960
  %8 = tail call i32 @pthread_mutex_destroy(ptr noundef nonnull %7) #69
  ret i32 0
}